target datalayout = "e-m:e-p270:32:32-p271:32:32-p272:64:64-i64:64-i128:128-f80:128-n8:16:32:64-S128"
target triple = "x86_64-pc-linux-gnu"

%"class.cv::Mat" = type { i32, i32, i32, i32, ptr, ptr, ptr, ptr, ptr, ptr, %"struct.cv::MatSize", %"struct.cv::MatStep" }
%"struct.cv::MatSize" = type { ptr }
%"struct.cv::MatStep" = type { ptr, [2 x i64] }
%"class.cv::Point_" = type { i32, i32 }
%"class.std::__cxx11::basic_string" = type { %"struct.std::__cxx11::basic_string<char>::_Alloc_hider", i64, %union.anon }
%"struct.std::__cxx11::basic_string<char>::_Alloc_hider" = type { ptr }
%union.anon = type { i64, [8 x i8] }
%"class.std::allocator" = type { i8 }
%"class.cv::Scalar_" = type { %"class.cv::Vec" }
%"class.cv::Vec" = type { %"class.cv::Matx" }
%"class.cv::Matx" = type { [4 x double] }
%"class.cv::Size_" = type { i32, i32 }
%"class.cv::_InputArray" = type { i32, ptr, %"class.cv::Size_" }
%"class.cv::_OutputArray" = type { %"class.cv::_InputArray" }
%"class.cv::_InputOutputArray" = type { %"class.cv::_OutputArray" }

@img = hidden global %"class.cv::Mat" zeroinitializer, align 8
@inpaintMask = hidden global %"class.cv::Mat" zeroinitializer, align 8
@prevPt = hidden global %"class.cv::Point_" zeroinitializer, align 4
@.str.7 = private unnamed_addr constant [6 x i8] c"image\00", align 1

; Function Attrs: mustprogress nounwind uwtable
define linkonce_odr hidden void @_ZN2cv4MatxIdLi4ELi1EEC2Ev(ptr noundef nonnull align 8 dereferenceable(32) %0) unnamed_addr #4 comdat align 2 {
  %2 = alloca ptr, align 8
  %3 = alloca i32, align 4
  store ptr %0, ptr %2, align 8
  %4 = load ptr, ptr %2, align 8
  store i32 0, ptr %3, align 4
  br label %5

5:                                                ; preds = %13, %1
  %6 = load i32, ptr %3, align 4
  %7 = icmp slt i32 %6, 4
  br i1 %7, label %8, label %16

8:                                                ; preds = %5
  %9 = getelementptr inbounds %"class.cv::Matx", ptr %4, i32 0, i32 0
  %10 = load i32, ptr %3, align 4
  %11 = sext i32 %10 to i64
  %12 = getelementptr inbounds [4 x double], ptr %9, i64 0, i64 %11
  store double 0.000000e+00, ptr %12, align 8
  br label %13

13:                                               ; preds = %8
  %14 = load i32, ptr %3, align 4
  %15 = add nsw i32 %14, 1
  store i32 %15, ptr %3, align 4
  br label %5, !llvm.loop !7

16:                                               ; preds = %5
  ret void
}

; Function Attrs: mustprogress uwtable
define linkonce_odr hidden void @_ZN2cv3VecIdLi4EEC2Ev(ptr noundef nonnull align 8 dereferenceable(32) %0) unnamed_addr #6 comdat align 2 {
  %2 = alloca ptr, align 8
  store ptr %0, ptr %2, align 8
  %3 = load ptr, ptr %2, align 8
  call void @_ZN2cv4MatxIdLi4ELi1EEC2Ev(ptr noundef nonnull align 8 dereferenceable(32) %3)
  ret void
}

; Function Attrs: mustprogress uwtable
define linkonce_odr hidden void @_ZN2cv11_InputArrayC2Ev(ptr noundef nonnull align 8 dereferenceable(24) %0) unnamed_addr #6 comdat align 2 {
  %2 = alloca ptr, align 8
  store ptr %0, ptr %2, align 8
  %3 = load ptr, ptr %2, align 8
  %4 = getelementptr inbounds %"class.cv::_InputArray", ptr %3, i32 0, i32 2
  call void @_ZN2cv5Size_IiEC2Ev(ptr noundef nonnull align 4 dereferenceable(8) %4)
  call void @_ZN2cv11_InputArray4initEiPKv(ptr noundef nonnull align 8 dereferenceable(24) %3, i32 noundef 0, ptr noundef null)
  ret void
}

; Function Attrs: mustprogress nounwind uwtable
define linkonce_odr hidden void @_ZN2cv5Size_IiEC2Ev(ptr noundef nonnull align 4 dereferenceable(8) %0) unnamed_addr #4 comdat align 2 {
  %2 = alloca ptr, align 8
  store ptr %0, ptr %2, align 8
  %3 = load ptr, ptr %2, align 8
  %4 = getelementptr inbounds %"class.cv::Size_", ptr %3, i32 0, i32 0
  store i32 0, ptr %4, align 4
  %5 = getelementptr inbounds %"class.cv::Size_", ptr %3, i32 0, i32 1
  store i32 0, ptr %5, align 4
  ret void
}

; Function Attrs: mustprogress nounwind uwtable
define linkonce_odr hidden void @_ZN2cv12_OutputArrayD2Ev(ptr noundef nonnull align 8 dereferenceable(24) %0) unnamed_addr #4 comdat align 2 {
  %2 = alloca ptr, align 8
  store ptr %0, ptr %2, align 8
  %3 = load ptr, ptr %2, align 8
  call void @_ZN2cv11_InputArrayD2Ev(ptr noundef nonnull align 8 dereferenceable(24) %3) #3
  ret void
}

; Function Attrs: mustprogress uwtable
define linkonce_odr hidden void @_ZN2cv7Scalar_IdEC2Edddd(ptr noundef nonnull align 8 dereferenceable(32) %0, double noundef %1, double noundef %2, double noundef %3, double noundef %4) unnamed_addr #6 comdat align 2 {
  %6 = alloca ptr, align 8
  %7 = alloca double, align 8
  %8 = alloca double, align 8
  %9 = alloca double, align 8
  %10 = alloca double, align 8
  store ptr %0, ptr %6, align 8
  store double %1, ptr %7, align 8
  store double %2, ptr %8, align 8
  store double %3, ptr %9, align 8
  store double %4, ptr %10, align 8
  %11 = load ptr, ptr %6, align 8
  call void @_ZN2cv3VecIdLi4EEC2Ev(ptr noundef nonnull align 8 dereferenceable(32) %11)
  %12 = load double, ptr %7, align 8
  %13 = getelementptr inbounds %"class.cv::Matx", ptr %11, i32 0, i32 0
  %14 = getelementptr inbounds [4 x double], ptr %13, i64 0, i64 0
  store double %12, ptr %14, align 8
  %15 = load double, ptr %8, align 8
  %16 = getelementptr inbounds %"class.cv::Matx", ptr %11, i32 0, i32 0
  %17 = getelementptr inbounds [4 x double], ptr %16, i64 0, i64 1
  store double %15, ptr %17, align 8
  %18 = load double, ptr %9, align 8
  %19 = getelementptr inbounds %"class.cv::Matx", ptr %11, i32 0, i32 0
  %20 = getelementptr inbounds [4 x double], ptr %19, i64 0, i64 2
  store double %18, ptr %20, align 8
  %21 = load double, ptr %10, align 8
  %22 = getelementptr inbounds %"class.cv::Matx", ptr %11, i32 0, i32 0
  %23 = getelementptr inbounds [4 x double], ptr %22, i64 0, i64 3
  store double %21, ptr %23, align 8
  ret void
}

; Function Attrs: mustprogress nounwind uwtable
define linkonce_odr hidden void @_ZN2cv11_InputArray4initEiPKv(ptr noundef nonnull align 8 dereferenceable(24) %0, i32 noundef %1, ptr noundef %2) #4 comdat align 2 {
  %4 = alloca ptr, align 8
  %5 = alloca i32, align 4
  %6 = alloca ptr, align 8
  store ptr %0, ptr %4, align 8
  store i32 %1, ptr %5, align 4
  store ptr %2, ptr %6, align 8
  %7 = load ptr, ptr %4, align 8
  %8 = load i32, ptr %5, align 4
  %9 = getelementptr inbounds %"class.cv::_InputArray", ptr %7, i32 0, i32 0
  store i32 %8, ptr %9, align 8
  %10 = load ptr, ptr %6, align 8
  %11 = getelementptr inbounds %"class.cv::_InputArray", ptr %7, i32 0, i32 1
  store ptr %10, ptr %11, align 8
  ret void
}

; Function Attrs: mustprogress uwtable
define linkonce_odr hidden void @_ZN2cv12_OutputArrayC2Ev(ptr noundef nonnull align 8 dereferenceable(24) %0) unnamed_addr #6 comdat align 2 {
  %2 = alloca ptr, align 8
  store ptr %0, ptr %2, align 8
  %3 = load ptr, ptr %2, align 8
  call void @_ZN2cv11_InputArrayC2Ev(ptr noundef nonnull align 8 dereferenceable(24) %3)
  call void @_ZN2cv11_InputArray4initEiPKv(ptr noundef nonnull align 8 dereferenceable(24) %3, i32 noundef 33554432, ptr noundef null)
  ret void
}

; Function Attrs: mustprogress nounwind uwtable
define linkonce_odr hidden void @_ZN2cv11_InputArrayD2Ev(ptr noundef nonnull align 8 dereferenceable(24) %0) unnamed_addr #4 comdat align 2 {
  %2 = alloca ptr, align 8
  store ptr %0, ptr %2, align 8
  ret void
}

; Function Attrs: mustprogress uwtable
define linkonce_odr hidden void @_ZN2cv11_InputArrayC2ERKNS_3MatE(ptr noundef nonnull align 8 dereferenceable(24) %0, ptr noundef nonnull align 8 dereferenceable(96) %1) unnamed_addr #6 comdat align 2 {
  %3 = alloca ptr, align 8
  %4 = alloca ptr, align 8
  store ptr %0, ptr %3, align 8
  store ptr %1, ptr %4, align 8
  %5 = load ptr, ptr %3, align 8
  %6 = getelementptr inbounds %"class.cv::_InputArray", ptr %5, i32 0, i32 2
  call void @_ZN2cv5Size_IiEC2Ev(ptr noundef nonnull align 4 dereferenceable(8) %6)
  %7 = load ptr, ptr %4, align 8
  call void @_ZN2cv11_InputArray4initEiPKv(ptr noundef nonnull align 8 dereferenceable(24) %5, i32 noundef 16842752, ptr noundef %7)
  ret void
}

; Function Attrs: mustprogress nounwind uwtable
define linkonce_odr hidden void @_ZN2cv17_InputOutputArrayD2Ev(ptr noundef nonnull align 8 dereferenceable(24) %0) unnamed_addr #4 comdat align 2 {
  %2 = alloca ptr, align 8
  store ptr %0, ptr %2, align 8
  %3 = load ptr, ptr %2, align 8
  call void @_ZN2cv12_OutputArrayD2Ev(ptr noundef nonnull align 8 dereferenceable(24) %3) #3
  ret void
}

; Function Attrs: mustprogress uwtable
define linkonce_odr hidden void @_ZN2cv7Scalar_IdE3allEd(ptr dead_on_unwind noalias writable sret(%"class.cv::Scalar_") align 8 %0, double noundef %1) #6 comdat align 2 {
  %3 = alloca ptr, align 8
  %4 = alloca double, align 8
  store ptr %0, ptr %3, align 8
  store double %1, ptr %4, align 8
  %5 = load double, ptr %4, align 8
  %6 = load double, ptr %4, align 8
  %7 = load double, ptr %4, align 8
  %8 = load double, ptr %4, align 8
  call void @_ZN2cv7Scalar_IdEC2Edddd(ptr noundef nonnull align 8 dereferenceable(32) %0, double noundef %5, double noundef %6, double noundef %7, double noundef %8)
  ret void
}

; Function Attrs: mustprogress uwtable
define linkonce_odr hidden void @_ZN2cv17_InputOutputArrayC2ERNS_3MatE(ptr noundef nonnull align 8 dereferenceable(24) %0, ptr noundef nonnull align 8 dereferenceable(96) %1) unnamed_addr #6 comdat align 2 {
  %3 = alloca ptr, align 8
  %4 = alloca ptr, align 8
  store ptr %0, ptr %3, align 8
  store ptr %1, ptr %4, align 8
  %5 = load ptr, ptr %3, align 8
  call void @_ZN2cv12_OutputArrayC2Ev(ptr noundef nonnull align 8 dereferenceable(24) %5)
  %6 = load ptr, ptr %4, align 8
  call void @_ZN2cv11_InputArray4initEiPKv(ptr noundef nonnull align 8 dereferenceable(24) %5, i32 noundef 50397184, ptr noundef %6)
  ret void
}

; Function Attrs: mustprogress nounwind uwtable
define linkonce_odr hidden void @_ZN2cv6Point_IiEC2Eii(ptr noundef nonnull align 4 dereferenceable(8) %0, i32 noundef %1, i32 noundef %2) unnamed_addr #4 comdat align 2 {
  %4 = alloca ptr, align 8
  %5 = alloca i32, align 4
  %6 = alloca i32, align 4
  store ptr %0, ptr %4, align 8
  store i32 %1, ptr %5, align 4
  store i32 %2, ptr %6, align 4
  %7 = load ptr, ptr %4, align 8
  %8 = getelementptr inbounds %"class.cv::Point_", ptr %7, i32 0, i32 0
  %9 = load i32, ptr %5, align 4
  store i32 %9, ptr %8, align 4
  %10 = getelementptr inbounds %"class.cv::Point_", ptr %7, i32 0, i32 1
  %11 = load i32, ptr %6, align 4
  store i32 %11, ptr %10, align 4
  ret void
}

; Function Attrs: mustprogress uwtable
define internal void @_ZL7onMouseiiiiPv(i32 noundef %0, i32 noundef %1, i32 noundef %2, i32 noundef %3, ptr noundef %4) #6 personality ptr @__gxx_personality_v0 {
  %6 = alloca i32, align 4
  %7 = alloca i32, align 4
  %8 = alloca i32, align 4
  %9 = alloca i32, align 4
  %10 = alloca ptr, align 8
  %11 = alloca %"class.cv::Point_", align 4
  %12 = alloca %"class.cv::Point_", align 4
  %13 = alloca %"class.cv::Point_", align 4
  %14 = alloca %"class.cv::_InputOutputArray", align 8
  %15 = alloca %"class.cv::Point_", align 4
  %16 = alloca %"class.cv::Point_", align 4
  %17 = alloca %"class.cv::Scalar_", align 8
  %18 = alloca ptr, align 8
  %19 = alloca i32, align 4
  %20 = alloca %"class.cv::_InputOutputArray", align 8
  %21 = alloca %"class.cv::Point_", align 4
  %22 = alloca %"class.cv::Point_", align 4
  %23 = alloca %"class.cv::Scalar_", align 8
  %24 = alloca %"class.std::__cxx11::basic_string", align 8
  %25 = alloca %"class.std::allocator", align 1
  %26 = alloca %"class.cv::_InputArray", align 8
  store i32 %0, ptr %6, align 4
  store i32 %1, ptr %7, align 4
  store i32 %2, ptr %8, align 4
  store i32 %3, ptr %9, align 4
  store ptr %4, ptr %10, align 8
  %27 = load i32, ptr %6, align 4
  %28 = icmp eq i32 %27, 4
  br i1 %28, label %33, label %29

29:                                               ; preds = %5
  %30 = load i32, ptr %9, align 4
  %31 = and i32 %30, 1
  %32 = icmp ne i32 %31, 0
  br i1 %32, label %34, label %33

33:                                               ; preds = %29, %5
  call void @_ZN2cv6Point_IiEC2Eii(ptr noundef nonnull align 4 dereferenceable(8) %11, i32 noundef -1, i32 noundef -1)
  call void @llvm.memcpy.p0.p0.i64(ptr align 4 @prevPt, ptr align 4 %11, i64 8, i1 false)
  br label %89

34:                                               ; preds = %29
  %35 = load i32, ptr %6, align 4
  %36 = icmp eq i32 %35, 1
  br i1 %36, label %37, label %40

37:                                               ; preds = %34
  %38 = load i32, ptr %7, align 4
  %39 = load i32, ptr %8, align 4
  call void @_ZN2cv6Point_IiEC2Eii(ptr noundef nonnull align 4 dereferenceable(8) %12, i32 noundef %38, i32 noundef %39)
  call void @llvm.memcpy.p0.p0.i64(ptr align 4 @prevPt, ptr align 4 %12, i64 8, i1 false)
  br label %88

40:                                               ; preds = %34
  %41 = load i32, ptr %6, align 4
  %42 = icmp eq i32 %41, 0
  br i1 %42, label %43, label %87

43:                                               ; preds = %40
  %44 = load i32, ptr %9, align 4
  %45 = and i32 %44, 1
  %46 = icmp ne i32 %45, 0
  br i1 %46, label %47, label %87

47:                                               ; preds = %43
  %48 = load i32, ptr %7, align 4
  %49 = load i32, ptr %8, align 4
  call void @_ZN2cv6Point_IiEC2Eii(ptr noundef nonnull align 4 dereferenceable(8) %13, i32 noundef %48, i32 noundef %49)
  %50 = load i32, ptr @prevPt, align 4
  %51 = icmp slt i32 %50, 0
  br i1 %51, label %52, label %53

52:                                               ; preds = %47
  call void @llvm.memcpy.p0.p0.i64(ptr align 4 @prevPt, ptr align 4 %13, i64 8, i1 false)
  br label %53

53:                                               ; preds = %52, %47
  call void @_ZN2cv17_InputOutputArrayC2ERNS_3MatE(ptr noundef nonnull align 8 dereferenceable(24) %14, ptr noundef nonnull align 8 dereferenceable(96) @inpaintMask)
  call void @llvm.memcpy.p0.p0.i64(ptr align 4 %15, ptr align 4 @prevPt, i64 8, i1 false)
  call void @llvm.memcpy.p0.p0.i64(ptr align 4 %16, ptr align 4 %13, i64 8, i1 false)
  invoke void @_ZN2cv7Scalar_IdE3allEd(ptr dead_on_unwind writable sret(%"class.cv::Scalar_") align 8 %17, double noundef 2.550000e+02)
          to label %54 unwind label %65

54:                                               ; preds = %53
  %55 = load i64, ptr %15, align 4
  %56 = load i64, ptr %16, align 4
  invoke void @_ZN2cv4lineERKNS_17_InputOutputArrayENS_6Point_IiEES4_RKNS_7Scalar_IdEEiii(ptr noundef nonnull align 8 dereferenceable(24) %14, i64 %55, i64 %56, ptr noundef nonnull align 8 dereferenceable(32) %17, i32 noundef 5, i32 noundef 8, i32 noundef 0)
          to label %57 unwind label %65

57:                                               ; preds = %54
  call void @_ZN2cv17_InputOutputArrayD2Ev(ptr noundef nonnull align 8 dereferenceable(24) %14) #3
  call void @_ZN2cv17_InputOutputArrayC2ERNS_3MatE(ptr noundef nonnull align 8 dereferenceable(24) %20, ptr noundef nonnull align 8 dereferenceable(96) @img)
  call void @llvm.memcpy.p0.p0.i64(ptr align 4 %21, ptr align 4 @prevPt, i64 8, i1 false)
  call void @llvm.memcpy.p0.p0.i64(ptr align 4 %22, ptr align 4 %13, i64 8, i1 false)
  invoke void @_ZN2cv7Scalar_IdE3allEd(ptr dead_on_unwind writable sret(%"class.cv::Scalar_") align 8 %23, double noundef 2.550000e+02)
          to label %58 unwind label %69

58:                                               ; preds = %57
  %59 = load i64, ptr %21, align 4
  %60 = load i64, ptr %22, align 4
  invoke void @_ZN2cv4lineERKNS_17_InputOutputArrayENS_6Point_IiEES4_RKNS_7Scalar_IdEEiii(ptr noundef nonnull align 8 dereferenceable(24) %20, i64 %59, i64 %60, ptr noundef nonnull align 8 dereferenceable(32) %23, i32 noundef 5, i32 noundef 8, i32 noundef 0)
          to label %61 unwind label %69

61:                                               ; preds = %58
  call void @_ZN2cv17_InputOutputArrayD2Ev(ptr noundef nonnull align 8 dereferenceable(24) %20) #3
  call void @llvm.memcpy.p0.p0.i64(ptr align 4 @prevPt, ptr align 4 %13, i64 8, i1 false)
  call void @_ZNSaIcEC1Ev(ptr noundef nonnull align 1 dereferenceable(1) %25) #3
  invoke void @_ZNSt7__cxx1112basic_stringIcSt11char_traitsIcESaIcEEC1EPKcRKS3_(ptr noundef nonnull align 8 dereferenceable(32) %24, ptr noundef @.str.7, ptr noundef nonnull align 1 dereferenceable(1) %25)
          to label %62 unwind label %73

62:                                               ; preds = %61
  invoke void @_ZN2cv11_InputArrayC2ERKNS_3MatE(ptr noundef nonnull align 8 dereferenceable(24) %26, ptr noundef nonnull align 8 dereferenceable(96) @img)
          to label %63 unwind label %77

63:                                               ; preds = %62
  invoke void @_ZN2cv6imshowERKNSt7__cxx1112basic_stringIcSt11char_traitsIcESaIcEEERKNS_11_InputArrayE(ptr noundef nonnull align 8 dereferenceable(32) %24, ptr noundef nonnull align 8 dereferenceable(24) %26)
          to label %64 unwind label %81

64:                                               ; preds = %63
  call void @_ZN2cv11_InputArrayD2Ev(ptr noundef nonnull align 8 dereferenceable(24) %26) #3
  call void @_ZNSt7__cxx1112basic_stringIcSt11char_traitsIcESaIcEED1Ev(ptr noundef nonnull align 8 dereferenceable(32) %24) #3
  call void @_ZNSaIcED1Ev(ptr noundef nonnull align 1 dereferenceable(1) %25) #3
  br label %87

65:                                               ; preds = %54, %53
  %66 = landingpad { ptr, i32 }
          cleanup
  %67 = extractvalue { ptr, i32 } %66, 0
  store ptr %67, ptr %18, align 8
  %68 = extractvalue { ptr, i32 } %66, 1
  store i32 %68, ptr %19, align 4
  call void @_ZN2cv17_InputOutputArrayD2Ev(ptr noundef nonnull align 8 dereferenceable(24) %14) #3
  br label %90

69:                                               ; preds = %58, %57
  %70 = landingpad { ptr, i32 }
          cleanup
  %71 = extractvalue { ptr, i32 } %70, 0
  store ptr %71, ptr %18, align 8
  %72 = extractvalue { ptr, i32 } %70, 1
  store i32 %72, ptr %19, align 4
  call void @_ZN2cv17_InputOutputArrayD2Ev(ptr noundef nonnull align 8 dereferenceable(24) %20) #3
  br label %90

73:                                               ; preds = %61
  %74 = landingpad { ptr, i32 }
          cleanup
  %75 = extractvalue { ptr, i32 } %74, 0
  store ptr %75, ptr %18, align 8
  %76 = extractvalue { ptr, i32 } %74, 1
  store i32 %76, ptr %19, align 4
  br label %86

77:                                               ; preds = %62
  %78 = landingpad { ptr, i32 }
          cleanup
  %79 = extractvalue { ptr, i32 } %78, 0
  store ptr %79, ptr %18, align 8
  %80 = extractvalue { ptr, i32 } %78, 1
  store i32 %80, ptr %19, align 4
  br label %85

81:                                               ; preds = %63
  %82 = landingpad { ptr, i32 }
          cleanup
  %83 = extractvalue { ptr, i32 } %82, 0
  store ptr %83, ptr %18, align 8
  %84 = extractvalue { ptr, i32 } %82, 1
  store i32 %84, ptr %19, align 4
  call void @_ZN2cv11_InputArrayD2Ev(ptr noundef nonnull align 8 dereferenceable(24) %26) #3
  br label %85

85:                                               ; preds = %81, %77
  call void @_ZNSt7__cxx1112basic_stringIcSt11char_traitsIcESaIcEED1Ev(ptr noundef nonnull align 8 dereferenceable(32) %24) #3
  br label %86

86:                                               ; preds = %85, %73
  call void @_ZNSaIcED1Ev(ptr noundef nonnull align 1 dereferenceable(1) %25) #3
  br label %90

87:                                               ; preds = %64, %43, %40
  br label %88

88:                                               ; preds = %87, %37
  br label %89

89:                                               ; preds = %88, %33
  ret void

90:                                               ; preds = %86, %69, %65
  %91 = load ptr, ptr %18, align 8
  %92 = load i32, ptr %19, align 4
  %93 = insertvalue { ptr, i32 } poison, ptr %91, 0
  %94 = insertvalue { ptr, i32 } %93, i32 %92, 1
  resume { ptr, i32 } %94
}