; Function Attrs: mustprogress uwtable
define internal void @_ZL7onMouseiiiiPv(i32 noundef %0, i32 noundef %1, i32 noundef %2, i32 noundef %3, ptr nocapture readnone %4) #5 personality ptr @__gxx_personality_v0 {
  %6 = alloca %"class.cv::_InputOutputArray", align 8
  %7 = alloca %"class.cv::Scalar_", align 16
  %8 = alloca %"class.cv::_InputOutputArray", align 8
  %9 = alloca %"class.cv::Scalar_", align 16
  %10 = alloca %"class.std::__cxx11::basic_string", align 8
  %11 = alloca %"class.std::allocator", align 1
  %12 = alloca %"class.cv::_InputArray", align 8
  %13 = icmp eq i32 %0, 4
  %14 = and i32 %3, 1
  %.not = icmp eq i32 %14, 0
  %or.cond = or i1 %13, %.not
  br i1 %or.cond, label %15, label %16

15:                                               ; preds = %5
  store i64 -1, ptr @prevPt, align 8
  br label %39

16:                                               ; preds = %5
  switch i32 %0, label %39 [
    i32 1, label %17
    i32 0, label %18
  ]

17:                                               ; preds = %16
  %.sroa.2.0.insert.ext = zext i32 %2 to i64
  %.sroa.2.0.insert.shift = shl nuw i64 %.sroa.2.0.insert.ext, 32
  %.sroa.043.0.insert.ext = zext i32 %1 to i64
  %.sroa.043.0.insert.insert = or disjoint i64 %.sroa.2.0.insert.shift, %.sroa.043.0.insert.ext
  store i64 %.sroa.043.0.insert.insert, ptr @prevPt, align 8
  br label %39

18:                                               ; preds = %16
  %19 = load i32, ptr @prevPt, align 8
  %20 = icmp slt i32 %19, 0
  br i1 %20, label %21, label %._crit_edge

._crit_edge:                                      ; preds = %18
  %.sroa.03.0.copyload.pre = load i64, ptr @prevPt, align 8
  %.pre = zext i32 %2 to i64
  %.pre47 = shl nuw i64 %.pre, 32
  %.pre48 = zext i32 %1 to i64
  %.pre49 = or disjoint i64 %.pre47, %.pre48
  br label %22

21:                                               ; preds = %18
  %.sroa.5.0.insert.ext34 = zext i32 %2 to i64
  %.sroa.5.0.insert.shift35 = shl nuw i64 %.sroa.5.0.insert.ext34, 32
  %.sroa.0.0.insert.ext23 = zext i32 %1 to i64
  %.sroa.0.0.insert.insert25 = or disjoint i64 %.sroa.5.0.insert.shift35, %.sroa.0.0.insert.ext23
  store i64 %.sroa.0.0.insert.insert25, ptr @prevPt, align 8
  br label %22

22:                                               ; preds = %._crit_edge, %21
  %.sroa.0.0.insert.insert22.pre-phi = phi i64 [ %.pre49, %._crit_edge ], [ %.sroa.0.0.insert.insert25, %21 ]
  %.sroa.03.0.copyload = phi i64 [ %.sroa.03.0.copyload.pre, %._crit_edge ], [ %.sroa.0.0.insert.insert25, %21 ]
  %23 = getelementptr inbounds i8, ptr %6, i64 8
  %24 = getelementptr inbounds i8, ptr %6, i64 16
  store i64 0, ptr %24, align 8
  store i32 50397184, ptr %6, align 8
  store ptr @inpaintMask, ptr %23, align 8
  store <2 x double> <double 2.550000e+02, double 2.550000e+02>, ptr %7, align 16, !alias.scope !7
  %25 = getelementptr inbounds i8, ptr %7, i64 16
  store <2 x double> <double 2.550000e+02, double 2.550000e+02>, ptr %25, align 16, !alias.scope !7
  call void @_ZN2cv4lineERKNS_17_InputOutputArrayENS_6Point_IiEES4_RKNS_7Scalar_IdEEiii(ptr noundef nonnull align 8 dereferenceable(24) %6, i64 %.sroa.03.0.copyload, i64 %.sroa.0.0.insert.insert22.pre-phi, ptr noundef nonnull align 8 dereferenceable(32) %7, i32 noundef 5, i32 noundef 8, i32 noundef 0)
  %26 = getelementptr inbounds i8, ptr %8, i64 8
  %27 = getelementptr inbounds i8, ptr %8, i64 16
  store i64 0, ptr %27, align 8
  store i32 50397184, ptr %8, align 8
  store ptr @img, ptr %26, align 8
  %.sroa.01.0.copyload = load i64, ptr @prevPt, align 8
  store <2 x double> <double 2.550000e+02, double 2.550000e+02>, ptr %9, align 16, !alias.scope !10
  %28 = getelementptr inbounds i8, ptr %9, i64 16
  store <2 x double> <double 2.550000e+02, double 2.550000e+02>, ptr %28, align 16, !alias.scope !10
  call void @_ZN2cv4lineERKNS_17_InputOutputArrayENS_6Point_IiEES4_RKNS_7Scalar_IdEEiii(ptr noundef nonnull align 8 dereferenceable(24) %8, i64 %.sroa.01.0.copyload, i64 %.sroa.0.0.insert.insert22.pre-phi, ptr noundef nonnull align 8 dereferenceable(32) %9, i32 noundef 5, i32 noundef 8, i32 noundef 0)
  store i64 %.sroa.0.0.insert.insert22.pre-phi, ptr @prevPt, align 8
  call void @_ZNSaIcEC1Ev(ptr noundef nonnull align 1 dereferenceable(1) %11) #8
  invoke void @_ZNSt7__cxx1112basic_stringIcSt11char_traitsIcESaIcEEC1EPKcRKS3_(ptr noundef nonnull align 8 dereferenceable(32) %10, ptr noundef nonnull @.str.7, ptr noundef nonnull align 1 dereferenceable(1) %11)
          to label %29 unwind label %34

29:                                               ; preds = %22
  %30 = getelementptr inbounds i8, ptr %12, i64 16
  store i32 0, ptr %30, align 8
  %31 = getelementptr inbounds i8, ptr %12, i64 20
  store i32 0, ptr %31, align 4
  store i32 16842752, ptr %12, align 8
  %32 = getelementptr inbounds i8, ptr %12, i64 8
  store ptr @img, ptr %32, align 8
  invoke void @_ZN2cv6imshowERKNSt7__cxx1112basic_stringIcSt11char_traitsIcESaIcEEERKNS_11_InputArrayE(ptr noundef nonnull align 8 dereferenceable(32) %10, ptr noundef nonnull align 8 dereferenceable(24) %12)
          to label %33 unwind label %36

33:                                               ; preds = %29
  call void @_ZNSt7__cxx1112basic_stringIcSt11char_traitsIcESaIcEED1Ev(ptr noundef nonnull align 8 dereferenceable(32) %10) #8
  call void @_ZNSaIcED1Ev(ptr noundef nonnull align 1 dereferenceable(1) %11) #8
  br label %39

34:                                               ; preds = %22
  %35 = landingpad { ptr, i32 }
          cleanup
  br label %38

36:                                               ; preds = %29
  %37 = landingpad { ptr, i32 }
          cleanup
  call void @_ZNSt7__cxx1112basic_stringIcSt11char_traitsIcESaIcEED1Ev(ptr noundef nonnull align 8 dereferenceable(32) %10) #8
  br label %38

38:                                               ; preds = %36, %34
  %.pn.pn = phi { ptr, i32 } [ %37, %36 ], [ %35, %34 ]
  call void @_ZNSaIcED1Ev(ptr noundef nonnull align 1 dereferenceable(1) %11) #8
  resume { ptr, i32 } %.pn.pn

39:                                               ; preds = %16, %17, %33, %15
  ret void
}